target datalayout = "e-m:e-p270:32:32-p271:32:32-p272:64:64-i64:64-i128:128-f80:128-n8:16:32:64-S128"
target triple = "x86_64-pc-linux-gnu"

%struct.pg_tm = type { i32, i32, i32, i32, i32, i32, i32, i32, i32, i64, ptr }
%struct.FunctionCallInfoBaseData = type { ptr, ptr, ptr, i32, i8, i16, [0 x %struct.NullableDatum] }
%struct.NullableDatum = type { i64, i8 }

@.str.3 = private unnamed_addr constant [7 x i8] c"date.c\00", align 1
@.str.19 = private unnamed_addr constant [23 x i8] c"timestamp out of range\00", align 1
@__func__.timestamp_time = private unnamed_addr constant [15 x i8] c"timestamp_time\00", align 1

; Function Attrs: inlinehint nounwind uwtable
define internal i64 @Int64GetDatum(i64 noundef %0) #4 {
  %2 = alloca i64, align 8
  store i64 %0, ptr %2, align 8
  %3 = load i64, ptr %2, align 8
  ret i64 %3
}

; Function Attrs: inlinehint nounwind uwtable
define internal i64 @DatumGetInt64(i64 noundef %0) #4 {
  %2 = alloca i64, align 8
  store i64 %0, ptr %2, align 8
  %3 = load i64, ptr %2, align 8
  ret i64 %3
}

; Function Attrs: inlinehint nounwind uwtable
define internal i64 @TimeADTGetDatum(i64 noundef %0) #4 {
  %2 = alloca i64, align 8
  store i64 %0, ptr %2, align 8
  %3 = load i64, ptr %2, align 8
  %4 = call i64 @Int64GetDatum(i64 noundef %3)
  ret i64 %4
}

; Function Attrs: inlinehint nounwind uwtable
define internal i64 @DatumGetTimestamp(i64 noundef %0) #4 {
  %2 = alloca i64, align 8
  store i64 %0, ptr %2, align 8
  %3 = load i64, ptr %2, align 8
  %4 = call i64 @DatumGetInt64(i64 noundef %3)
  ret i64 %4
}

; Function Attrs: nounwind uwtable
define dso_local i64 @timestamp_time(ptr noundef %0) #0 {
  %2 = alloca i64, align 8
  %3 = alloca ptr, align 8
  %4 = alloca i64, align 8
  %5 = alloca i64, align 8
  %6 = alloca %struct.pg_tm, align 8
  %7 = alloca ptr, align 8
  %8 = alloca i32, align 4
  %9 = alloca i32, align 4
  store ptr %0, ptr %3, align 8
  call void @llvm.lifetime.start.p0(i64 8, ptr %4) #9
  %10 = load ptr, ptr %3, align 8
  %11 = getelementptr inbounds nuw %struct.FunctionCallInfoBaseData, ptr %10, i32 0, i32 6
  %12 = getelementptr inbounds [0 x %struct.NullableDatum], ptr %11, i64 0, i64 0
  %13 = getelementptr inbounds nuw %struct.NullableDatum, ptr %12, i32 0, i32 0
  %14 = load i64, ptr %13, align 8
  %15 = call i64 @DatumGetTimestamp(i64 noundef %14)
  store i64 %15, ptr %4, align 8
  call void @llvm.lifetime.start.p0(i64 8, ptr %5) #9
  call void @llvm.lifetime.start.p0(i64 56, ptr %6) #9
  call void @llvm.lifetime.start.p0(i64 8, ptr %7) #9
  store ptr %6, ptr %7, align 8
  call void @llvm.lifetime.start.p0(i64 4, ptr %8) #9
  %16 = load i64, ptr %4, align 8
  %17 = icmp eq i64 %16, -9223372036854775808
  br i1 %17, label %21, label %18

18:                                               ; preds = %1
  %19 = load i64, ptr %4, align 8
  %20 = icmp eq i64 %19, 9223372036854775807
  br i1 %20, label %21, label %27

21:                                               ; preds = %18, %1
  br label %22

22:                                               ; preds = %21
  %23 = load ptr, ptr %3, align 8
  %24 = getelementptr inbounds nuw %struct.FunctionCallInfoBaseData, ptr %23, i32 0, i32 4
  store i8 1, ptr %24, align 4
  store i64 0, ptr %2, align 8
  store i32 1, ptr %9, align 4
  br label %65

25:                                               ; No predecessors!
  br label %26

26:                                               ; preds = %25
  br label %27

27:                                               ; preds = %26, %18
  %28 = load i64, ptr %4, align 8
  %29 = load ptr, ptr %7, align 8
  %30 = call i32 @timestamp2tm(i64 noundef %28, ptr noundef null, ptr noundef %29, ptr noundef %8, ptr noundef null, ptr noundef null)
  %31 = icmp ne i32 %30, 0
  br i1 %31, label %32, label %44

32:                                               ; preds = %27
  br label %33

33:                                               ; preds = %32
  br i1 true, label %34, label %36

34:                                               ; preds = %33
  %35 = call zeroext i1 @errstart_cold(i32 noundef 21, ptr noundef null) #8
  br i1 %35, label %38, label %41

36:                                               ; preds = %33
  %37 = call zeroext i1 @errstart(i32 noundef 21, ptr noundef null)
  br i1 %37, label %38, label %41

38:                                               ; preds = %36, %34
  %39 = call i32 @errcode(i32 noundef 134217858)
  %40 = call i32 (ptr, ...) @errmsg(ptr noundef @.str.19)
  call void @errfinish(ptr noundef @.str.3, i32 noundef 1938, ptr noundef @__func__.timestamp_time)
  br label %41

41:                                               ; preds = %38, %36, %34
  unreachable

42:                                               ; No predecessors!
  br label %43

43:                                               ; preds = %42
  br label %44

44:                                               ; preds = %43, %27
  %45 = load ptr, ptr %7, align 8
  %46 = getelementptr inbounds nuw %struct.pg_tm, ptr %45, i32 0, i32 2
  %47 = load i32, ptr %46, align 8
  %48 = mul i32 %47, 60
  %49 = load ptr, ptr %7, align 8
  %50 = getelementptr inbounds nuw %struct.pg_tm, ptr %49, i32 0, i32 1
  %51 = load i32, ptr %50, align 4
  %52 = add i32 %48, %51
  %53 = mul i32 %52, 60
  %54 = load ptr, ptr %7, align 8
  %55 = getelementptr inbounds nuw %struct.pg_tm, ptr %54, i32 0, i32 0
  %56 = load i32, ptr %55, align 8
  %57 = add i32 %53, %56
  %58 = sext i32 %57 to i64
  %59 = mul i64 %58, 1000000
  %60 = load i32, ptr %8, align 4
  %61 = sext i32 %60 to i64
  %62 = add i64 %59, %61
  store i64 %62, ptr %5, align 8
  %63 = load i64, ptr %5, align 8
  %64 = call i64 @TimeADTGetDatum(i64 noundef %63)
  store i64 %64, ptr %2, align 8
  store i32 1, ptr %9, align 4
  br label %65

65:                                               ; preds = %44, %22
  call void @llvm.lifetime.end.p0(i64 4, ptr %8) #9
  call void @llvm.lifetime.end.p0(i64 8, ptr %7) #9
  call void @llvm.lifetime.end.p0(i64 56, ptr %6) #9
  call void @llvm.lifetime.end.p0(i64 8, ptr %5) #9
  call void @llvm.lifetime.end.p0(i64 8, ptr %4) #9
  %66 = load i64, ptr %2, align 8
  ret i64 %66
}