; Function Attrs: nounwind uwtable
define dso_local range(i64 -2147485795483648, 2147485794483648) i64 @timestamp_time(ptr noundef captures(none) %0) local_unnamed_addr #0 {
  %2 = alloca %struct.pg_tm, align 8
  %3 = alloca i32, align 4
  %4 = getelementptr inbounds nuw i8, ptr %0, i64 32
  %5 = load i64, ptr %4, align 8
  call void @llvm.lifetime.start.p0(i64 56, ptr nonnull %2) #16
  call void @llvm.lifetime.start.p0(i64 4, ptr nonnull %3) #16
  %6 = add i64 %5, -9223372036854775807
  %or.cond = icmp ult i64 %6, 2
  br i1 %or.cond, label %7, label %9

7:                                                ; preds = %1
  %8 = getelementptr inbounds nuw i8, ptr %0, i64 28
  store i8 1, ptr %8, align 4
  br label %30

9:                                                ; preds = %1
  %10 = call i32 @timestamp2tm(i64 noundef %5, ptr noundef null, ptr noundef nonnull %2, ptr noundef nonnull %3, ptr noundef null, ptr noundef null) #16
  %.not = icmp eq i32 %10, 0
  br i1 %.not, label %15, label %11

11:                                               ; preds = %9
  %12 = call zeroext i1 @errstart_cold(i32 noundef 21, ptr noundef null) #15
  call void @llvm.assume(i1 %12)
  %13 = call i32 @errcode(i32 noundef 134217858) #16
  %14 = call i32 (ptr, ...) @errmsg(ptr noundef nonnull @.str.19) #16
  call void @errfinish(ptr noundef nonnull @.str.3, i32 noundef 1938, ptr noundef nonnull @__func__.timestamp_time) #16
  unreachable

15:                                               ; preds = %9
  %16 = getelementptr inbounds nuw i8, ptr %2, i64 8
  %17 = load i32, ptr %16, align 8
  %18 = mul i32 %17, 60
  %19 = getelementptr inbounds nuw i8, ptr %2, i64 4
  %20 = load i32, ptr %19, align 4
  %21 = add i32 %18, %20
  %22 = mul i32 %21, 60
  %23 = load i32, ptr %2, align 8
  %24 = add i32 %22, %23
  %25 = sext i32 %24 to i64
  %26 = mul nsw i64 %25, 1000000
  %27 = load i32, ptr %3, align 4
  %28 = sext i32 %27 to i64
  %29 = add nsw i64 %26, %28
  br label %30

30:                                               ; preds = %15, %7
  %.0 = phi i64 [ 0, %7 ], [ %29, %15 ]
  call void @llvm.lifetime.end.p0(i64 4, ptr nonnull %3) #16
  call void @llvm.lifetime.end.p0(i64 56, ptr nonnull %2) #16
  ret i64 %.0
}